; Function Attrs: null_pointer_is_valid sspstrong uwtable
define internal i32 @dissect_nbap_T_dCH_ID_01(ptr noundef %0, i32 noundef %1, ptr noundef %2, ptr noundef %3, i32 noundef %4) #0 {
  %6 = tail call i32 @dissect_nbap_DCH_ID(ptr noundef %0, i32 noundef %1, ptr noundef %2, ptr noundef %3, i32 noundef %4)
  %7 = getelementptr inbounds nuw i8, ptr %2, i64 16
  %8 = load ptr, ptr %7, align 8
  %9 = getelementptr inbounds nuw i8, ptr %8, i64 408
  %10 = load ptr, ptr %9, align 8
  %11 = load i32, ptr @proto_nbap, align 4
  %12 = tail call ptr @p_get_proto_data(ptr noundef %10, ptr noundef %8, i32 noundef %11, i32 noundef 0)
  %13 = icmp eq ptr %12, null
  br i1 %13, label %14, label %nbap_get_private_data.exit

14:                                               ; preds = %5
  %15 = load ptr, ptr %9, align 8
  %16 = tail call noalias dereferenceable_or_null(268056) ptr @wmem_alloc0(ptr noundef %15, i64 noundef 268056) #10
  %17 = load ptr, ptr %9, align 8
  %18 = load i32, ptr @proto_nbap, align 4
  tail call void @p_add_proto_data(ptr noundef %17, ptr noundef %8, i32 noundef %18, i32 noundef 0, ptr noundef %16)
  %19 = getelementptr inbounds nuw i8, ptr %16, i64 68
  store i32 3, ptr %19, align 4
  %20 = getelementptr inbounds nuw i8, ptr %16, i64 108
  store i8 0, ptr %20, align 4
  %21 = getelementptr inbounds nuw i8, ptr %16, i64 12
  store i32 65535, ptr %21, align 4
  %22 = getelementptr inbounds nuw i8, ptr %16, i64 40
  store i32 65535, ptr %22, align 8
  %23 = getelementptr inbounds nuw i8, ptr %16, i64 109
  store i8 2, ptr %23, align 1
  %24 = getelementptr i8, ptr %16, i64 267508
  br label %25

25:                                               ; preds = %25, %14
  %indvars.iv.i = phi i64 [ 0, %14 ], [ %indvars.iv.next.i, %25 ]
  %.idx.i = mul nuw nsw i64 %indvars.iv.i, 40
  %26 = getelementptr i8, ptr %24, i64 %.idx.i
  store i8 1, ptr %26, align 4
  %indvars.iv.next.i = add nuw nsw i64 %indvars.iv.i, 1
  %exitcond.not.i = icmp eq i64 %indvars.iv.next.i, 8
  br i1 %exitcond.not.i, label %nbap_get_private_data.exit, label %25, !llvm.loop !9

nbap_get_private_data.exit:                       ; preds = %25, %5
  %.0.i = phi ptr [ %12, %5 ], [ %16, %25 ]
  %27 = getelementptr inbounds nuw i8, ptr %.0.i, i64 48
  %28 = load i32, ptr %27, align 8
  %29 = load ptr, ptr %7, align 8
  %30 = getelementptr inbounds nuw i8, ptr %29, i64 408
  %31 = load ptr, ptr %30, align 8
  %32 = load i32, ptr @proto_nbap, align 4
  %33 = tail call ptr @p_get_proto_data(ptr noundef %31, ptr noundef %29, i32 noundef %32, i32 noundef 0)
  %34 = icmp eq ptr %33, null
  br i1 %34, label %35, label %nbap_get_private_data.exit12

35:                                               ; preds = %nbap_get_private_data.exit
  %36 = load ptr, ptr %30, align 8
  %37 = tail call noalias dereferenceable_or_null(268056) ptr @wmem_alloc0(ptr noundef %36, i64 noundef 268056) #10
  %38 = load ptr, ptr %30, align 8
  %39 = load i32, ptr @proto_nbap, align 4
  tail call void @p_add_proto_data(ptr noundef %38, ptr noundef %29, i32 noundef %39, i32 noundef 0, ptr noundef %37)
  %40 = getelementptr inbounds nuw i8, ptr %37, i64 68
  store i32 3, ptr %40, align 4
  %41 = getelementptr inbounds nuw i8, ptr %37, i64 108
  store i8 0, ptr %41, align 4
  %42 = getelementptr inbounds nuw i8, ptr %37, i64 12
  store i32 65535, ptr %42, align 4
  %43 = getelementptr inbounds nuw i8, ptr %37, i64 40
  store i32 65535, ptr %43, align 8
  %44 = getelementptr inbounds nuw i8, ptr %37, i64 109
  store i8 2, ptr %44, align 1
  %45 = getelementptr i8, ptr %37, i64 267508
  br label %46

46:                                               ; preds = %46, %35
  %indvars.iv.i8 = phi i64 [ 0, %35 ], [ %indvars.iv.next.i10, %46 ]
  %.idx.i9 = mul nuw nsw i64 %indvars.iv.i8, 40
  %47 = getelementptr i8, ptr %45, i64 %.idx.i9
  store i8 1, ptr %47, align 4
  %indvars.iv.next.i10 = add nuw nsw i64 %indvars.iv.i8, 1
  %exitcond.not.i11 = icmp eq i64 %indvars.iv.next.i10, 8
  br i1 %exitcond.not.i11, label %nbap_get_private_data.exit12, label %46, !llvm.loop !9

nbap_get_private_data.exit12:                     ; preds = %46, %nbap_get_private_data.exit
  %.0.i7 = phi ptr [ %33, %nbap_get_private_data.exit ], [ %37, %46 ]
  %48 = getelementptr inbounds nuw i8, ptr %.0.i7, i64 52
  store i32 %28, ptr %48, align 4
  ret i32 %6
}